; Function Attrs: nofree norecurse nosync nounwind memory(write, argmem: readwrite, inaccessiblemem: none) uwtable
define internal fastcc ptr @jvp_object_add_slot(i64 %0, ptr captures(ret: address, provenance) %1, i64 %2, ptr %3, ptr noundef captures(none) %4) unnamed_addr #21 {
  %6 = getelementptr inbounds nuw i8, ptr %1, i64 4
  %7 = load i32, ptr %6, align 4, !tbaa !4
  %.sroa.1.0.extract.shift.i = lshr i64 %0, 32
  %.sroa.1.0.extract.trunc.i = trunc nuw i64 %.sroa.1.0.extract.shift.i to i32
  %8 = icmp eq i32 %7, %.sroa.1.0.extract.trunc.i
  br i1 %8, label %75, label %9

9:                                                ; preds = %5
  %10 = icmp eq i32 %7, -1
  %11 = getelementptr inbounds nuw i8, ptr %1, i64 8
  %12 = sext i32 %7 to i64
  %13 = getelementptr inbounds [0 x %struct.object_slot], ptr %11, i64 0, i64 %12
  %.0.i = select i1 %10, ptr null, ptr %13
  %14 = add nsw i32 %7, 1
  store i32 %14, ptr %6, align 4, !tbaa !4
  %15 = load i32, ptr %4, align 4, !tbaa !4
  store i32 %15, ptr %.0.i, align 8, !tbaa !58
  store i32 %7, ptr %4, align 4, !tbaa !4
  %16 = getelementptr inbounds nuw i8, ptr %3, i64 8
  %17 = load i32, ptr %16, align 4, !tbaa !4
  %18 = and i32 %17, 1
  %.not.i = icmp eq i32 %18, 0
  br i1 %.not.i, label %22, label %19

19:                                               ; preds = %9
  %20 = getelementptr inbounds nuw i8, ptr %3, i64 4
  %21 = load i32, ptr %20, align 4, !tbaa !4
  br label %jvp_string_hash.exit

22:                                               ; preds = %9
  %23 = getelementptr inbounds nuw i8, ptr %3, i64 16
  %24 = lshr exact i32 %17, 1
  %25 = and i32 %24, 2147483644
  %26 = zext nneg i32 %25 to i64
  %27 = getelementptr inbounds nuw i8, ptr %23, i64 %26
  %.not5152.i = icmp ult i32 %17, 8
  br i1 %.not5152.i, label %._crit_edge.i, label %.lr.ph.preheader.i

.lr.ph.preheader.i:                               ; preds = %22
  %28 = lshr i32 %17, 3
  %29 = sub nsw i32 0, %28
  %30 = sext i32 %29 to i64
  br label %.lr.ph.i

._crit_edge.i:                                    ; preds = %.lr.ph.i, %22
  %.049.lcssa.i = phi i32 [ 1126864963, %22 ], [ %40, %.lr.ph.i ]
  %31 = and i32 %24, 3
  switch i32 %31, label %default.unreachable [
    i32 3, label %42
    i32 2, label %47
    i32 1, label %53
    i32 0, label %61
  ]

.lr.ph.i:                                         ; preds = %.lr.ph.i, %.lr.ph.preheader.i
  %indvars.iv.i = phi i64 [ %30, %.lr.ph.preheader.i ], [ %indvars.iv.next.i, %.lr.ph.i ]
  %.04953.i = phi i32 [ 1126864963, %.lr.ph.preheader.i ], [ %40, %.lr.ph.i ]
  %32 = getelementptr inbounds i32, ptr %27, i64 %indvars.iv.i
  %33 = load i32, ptr %32, align 4, !tbaa !4
  %34 = mul i32 %33, -862048943
  %35 = tail call i32 @llvm.fshl.i32(i32 %34, i32 %34, i32 15)
  %36 = mul i32 %35, 461845907
  %37 = xor i32 %36, %.04953.i
  %38 = tail call i32 @llvm.fshl.i32(i32 %37, i32 %37, i32 13)
  %39 = mul i32 %38, 5
  %40 = add i32 %39, -430675100
  %indvars.iv.next.i = add nsw i64 %indvars.iv.i, 1
  %41 = icmp eq i64 %indvars.iv.next.i, 0
  br i1 %41, label %._crit_edge.i, label %.lr.ph.i, !llvm.loop !55

42:                                               ; preds = %._crit_edge.i
  %43 = getelementptr inbounds nuw i8, ptr %27, i64 2
  %44 = load i8, ptr %43, align 1, !tbaa !8
  %45 = zext i8 %44 to i32
  %46 = shl nuw nsw i32 %45, 16
  br label %47

47:                                               ; preds = %42, %._crit_edge.i
  %.0.i17 = phi i32 [ 0, %._crit_edge.i ], [ %46, %42 ]
  %48 = getelementptr inbounds nuw i8, ptr %27, i64 1
  %49 = load i8, ptr %48, align 1, !tbaa !8
  %50 = zext i8 %49 to i32
  %51 = shl nuw nsw i32 %50, 8
  %52 = or disjoint i32 %51, %.0.i17
  br label %53

53:                                               ; preds = %47, %._crit_edge.i
  %.1.i = phi i32 [ 0, %._crit_edge.i ], [ %52, %47 ]
  %54 = load i8, ptr %27, align 1, !tbaa !8
  %55 = zext i8 %54 to i32
  %56 = xor i32 %.1.i, %55
  %57 = mul i32 %56, -862048943
  %58 = tail call i32 @llvm.fshl.i32(i32 %57, i32 %57, i32 15)
  %59 = mul i32 %58, 461845907
  %60 = xor i32 %59, %.049.lcssa.i
  br label %61

default.unreachable:                              ; preds = %._crit_edge.i
  unreachable

61:                                               ; preds = %53, %._crit_edge.i
  %.150.i = phi i32 [ %.049.lcssa.i, %._crit_edge.i ], [ %60, %53 ]
  %62 = xor i32 %.150.i, %24
  %63 = lshr i32 %62, 16
  %64 = xor i32 %63, %62
  %65 = mul i32 %64, -2048144789
  %66 = lshr i32 %65, 13
  %67 = xor i32 %66, %65
  %68 = mul i32 %67, -1028477387
  %69 = lshr i32 %68, 16
  %70 = xor i32 %69, %68
  %71 = or disjoint i32 %17, 1
  store i32 %71, ptr %16, align 4, !tbaa !4
  %72 = getelementptr inbounds nuw i8, ptr %3, i64 4
  store i32 %70, ptr %72, align 4, !tbaa !4
  br label %jvp_string_hash.exit

jvp_string_hash.exit:                             ; preds = %19, %61
  %.047.i = phi i32 [ %21, %19 ], [ %70, %61 ]
  %73 = getelementptr inbounds nuw i8, ptr %.0.i, i64 4
  store i32 %.047.i, ptr %73, align 4, !tbaa !61
  %74 = getelementptr inbounds nuw i8, ptr %.0.i, i64 8
  store i64 %2, ptr %74, align 8
  %.sroa.3.0..sroa_idx = getelementptr inbounds nuw i8, ptr %.0.i, i64 16
  store ptr %3, ptr %.sroa.3.0..sroa_idx, align 8, !tbaa !8
  br label %75

75:                                               ; preds = %5, %jvp_string_hash.exit
  %.0 = phi ptr [ %13, %jvp_string_hash.exit ], [ null, %5 ]
  ret ptr %.0
}